target datalayout = "e-m:e-p270:32:32-p271:32:32-p272:64:64-i64:64-i128:128-f80:128-n8:16:32:64-S128"
target triple = "x86_64-pc-linux-gnu"

%struct.aiMaterial = type { ptr, i32, i32 }
%struct.aiMaterialProperty = type { %struct.aiString, i32, i32, i32, i32, ptr }
%struct.aiString = type { i32, [1024 x i8] }

; Function Attrs: mustprogress nounwind uwtable
define i32 @aiGetMaterialProperty(ptr noundef %0, ptr noundef %1, i32 noundef %2, i32 noundef %3, ptr noundef %4) #0 {
  %6 = alloca i32, align 4
  %7 = alloca ptr, align 8
  %8 = alloca ptr, align 8
  %9 = alloca i32, align 4
  %10 = alloca i32, align 4
  %11 = alloca ptr, align 8
  %12 = alloca i32, align 4
  %13 = alloca i32, align 4
  %14 = alloca ptr, align 8
  store ptr %0, ptr %7, align 8
  store ptr %1, ptr %8, align 8
  store i32 %2, ptr %9, align 4
  store i32 %3, ptr %10, align 4
  store ptr %4, ptr %11, align 8
  call void @llvm.lifetime.start.p0(i64 4, ptr %12) #17
  store i32 0, ptr %12, align 4
  br label %15

15:                                               ; preds = %73, %5
  %16 = load i32, ptr %12, align 4
  %17 = load ptr, ptr %7, align 8
  %18 = getelementptr inbounds nuw %struct.aiMaterial, ptr %17, i32 0, i32 1
  %19 = load i32, ptr %18, align 8
  %20 = icmp ult i32 %16, %19
  br i1 %20, label %22, label %21

21:                                               ; preds = %15
  store i32 2, ptr %13, align 4
  br label %76

22:                                               ; preds = %15
  call void @llvm.lifetime.start.p0(i64 8, ptr %14) #17
  %23 = load ptr, ptr %7, align 8
  %24 = getelementptr inbounds nuw %struct.aiMaterial, ptr %23, i32 0, i32 0
  %25 = load ptr, ptr %24, align 8
  %26 = load i32, ptr %12, align 4
  %27 = zext i32 %26 to i64
  %28 = getelementptr inbounds nuw ptr, ptr %25, i64 %27
  %29 = load ptr, ptr %28, align 8
  store ptr %29, ptr %14, align 8
  %30 = load ptr, ptr %14, align 8
  %31 = icmp ne ptr %30, null
  br i1 %31, label %32, label %69

32:                                               ; preds = %22
  %33 = load ptr, ptr %14, align 8
  %34 = getelementptr inbounds nuw %struct.aiMaterialProperty, ptr %33, i32 0, i32 0
  %35 = getelementptr inbounds nuw %struct.aiString, ptr %34, i32 0, i32 1
  %36 = getelementptr inbounds [1024 x i8], ptr %35, i64 0, i64 0
  %37 = load ptr, ptr %8, align 8
  %38 = load ptr, ptr %8, align 8
  %39 = call i64 @strlen(ptr noundef %38) #18
  %40 = call i32 @strncmp(ptr noundef %36, ptr noundef %37, i64 noundef %39) #18
  %41 = icmp eq i32 0, %40
  br i1 %41, label %42, label %69

42:                                               ; preds = %32
  %43 = load i32, ptr %9, align 4
  %44 = icmp eq i32 -1, %43
  br i1 %44, label %51, label %45

45:                                               ; preds = %42
  %46 = load ptr, ptr %14, align 8
  %47 = getelementptr inbounds nuw %struct.aiMaterialProperty, ptr %46, i32 0, i32 1
  %48 = load i32, ptr %47, align 4
  %49 = load i32, ptr %9, align 4
  %50 = icmp eq i32 %48, %49
  br i1 %50, label %51, label %69

51:                                               ; preds = %45, %42
  %52 = load i32, ptr %10, align 4
  %53 = icmp eq i32 -1, %52
  br i1 %53, label %60, label %54

54:                                               ; preds = %51
  %55 = load ptr, ptr %14, align 8
  %56 = getelementptr inbounds nuw %struct.aiMaterialProperty, ptr %55, i32 0, i32 2
  %57 = load i32, ptr %56, align 8
  %58 = load i32, ptr %10, align 4
  %59 = icmp eq i32 %57, %58
  br i1 %59, label %60, label %69

60:                                               ; preds = %54, %51
  %61 = load ptr, ptr %7, align 8
  %62 = getelementptr inbounds nuw %struct.aiMaterial, ptr %61, i32 0, i32 0
  %63 = load ptr, ptr %62, align 8
  %64 = load i32, ptr %12, align 4
  %65 = zext i32 %64 to i64
  %66 = getelementptr inbounds nuw ptr, ptr %63, i64 %65
  %67 = load ptr, ptr %66, align 8
  %68 = load ptr, ptr %11, align 8
  store ptr %67, ptr %68, align 8
  store i32 0, ptr %6, align 4
  store i32 1, ptr %13, align 4
  br label %70

69:                                               ; preds = %54, %45, %32, %22
  store i32 0, ptr %13, align 4
  br label %70

70:                                               ; preds = %69, %60
  call void @llvm.lifetime.end.p0(i64 8, ptr %14) #17
  %71 = load i32, ptr %13, align 4
  switch i32 %71, label %76 [
    i32 0, label %72
  ]

72:                                               ; preds = %70
  br label %73

73:                                               ; preds = %72
  %74 = load i32, ptr %12, align 4
  %75 = add i32 %74, 1
  store i32 %75, ptr %12, align 4
  br label %15, !llvm.loop !3

76:                                               ; preds = %70, %21
  call void @llvm.lifetime.end.p0(i64 4, ptr %12) #17
  %77 = load i32, ptr %13, align 4
  switch i32 %77, label %82 [
    i32 2, label %78
    i32 1, label %80
  ]

78:                                               ; preds = %76
  %79 = load ptr, ptr %11, align 8
  store ptr null, ptr %79, align 8
  store i32 -1, ptr %6, align 4
  br label %80

80:                                               ; preds = %78, %76
  %81 = load i32, ptr %6, align 4
  ret i32 %81

82:                                               ; preds = %76
  unreachable
}