; Function Attrs: mustprogress nofree nounwind memory(read, argmem: readwrite, inaccessiblemem: none) uwtable
define range(i32 -1, 1) i32 @aiGetMaterialProperty(ptr noundef readonly captures(none) %0, ptr noundef readonly captures(none) %1, i32 noundef %2, i32 noundef %3, ptr noundef writeonly captures(none) %4) local_unnamed_addr #0 {
  %6 = getelementptr inbounds nuw i8, ptr %0, i64 8
  %7 = load i32, ptr %6, align 8
  %.not60 = icmp eq i32 %7, 0
  br i1 %.not60, label %._crit_edge, label %.lr.ph

.lr.ph:                                           ; preds = %5
  %8 = load ptr, ptr %0, align 8
  %9 = icmp eq i32 %2, -1
  %10 = icmp eq i32 %3, -1
  %wide.trip.count84 = zext i32 %7 to i64
  br i1 %9, label %.lr.ph.split.us, label %.lr.ph.split

.lr.ph.split.us:                                  ; preds = %.lr.ph
  br i1 %10, label %.lr.ph.split.us.split.us, label %.lr.ph.split.us.split

.lr.ph.split.us.split.us:                         ; preds = %.lr.ph.split.us, %18
  %indvars.iv81 = phi i64 [ %indvars.iv.next82, %18 ], [ 0, %.lr.ph.split.us ]
  %11 = getelementptr inbounds nuw ptr, ptr %8, i64 %indvars.iv81
  %12 = load ptr, ptr %11, align 8
  %.not.us.us = icmp eq ptr %12, null
  br i1 %.not.us.us, label %18, label %13

13:                                               ; preds = %.lr.ph.split.us.split.us
  %14 = getelementptr inbounds nuw i8, ptr %12, i64 4
  %15 = tail call i64 @strlen(ptr noundef nonnull dereferenceable(1) %1) #23
  %16 = tail call i32 @strncmp(ptr noundef nonnull %14, ptr noundef nonnull %1, i64 noundef %15) #23
  %17 = icmp eq i32 %16, 0
  br i1 %17, label %._crit_edge, label %18

18:                                               ; preds = %13, %.lr.ph.split.us.split.us
  %indvars.iv.next82 = add nuw nsw i64 %indvars.iv81, 1
  %exitcond85.not = icmp eq i64 %indvars.iv.next82, %wide.trip.count84
  br i1 %exitcond85.not, label %._crit_edge, label %.lr.ph.split.us.split.us, !llvm.loop !3

.lr.ph.split.us.split:                            ; preds = %.lr.ph.split.us, %30
  %indvars.iv76 = phi i64 [ %indvars.iv.next77, %30 ], [ 0, %.lr.ph.split.us ]
  %19 = getelementptr inbounds nuw ptr, ptr %8, i64 %indvars.iv76
  %20 = load ptr, ptr %19, align 8
  %.not.us = icmp eq ptr %20, null
  br i1 %.not.us, label %30, label %21

21:                                               ; preds = %.lr.ph.split.us.split
  %22 = getelementptr inbounds nuw i8, ptr %20, i64 4
  %23 = tail call i64 @strlen(ptr noundef nonnull dereferenceable(1) %1) #23
  %24 = tail call i32 @strncmp(ptr noundef nonnull %22, ptr noundef nonnull %1, i64 noundef %23) #23
  %25 = icmp eq i32 %24, 0
  br i1 %25, label %26, label %30

26:                                               ; preds = %21
  %27 = getelementptr inbounds nuw i8, ptr %20, i64 1032
  %28 = load i32, ptr %27, align 8
  %29 = icmp eq i32 %28, %3
  br i1 %29, label %._crit_edge, label %30

30:                                               ; preds = %26, %21, %.lr.ph.split.us.split
  %indvars.iv.next77 = add nuw nsw i64 %indvars.iv76, 1
  %exitcond80.not = icmp eq i64 %indvars.iv.next77, %wide.trip.count84
  br i1 %exitcond80.not, label %._crit_edge, label %.lr.ph.split.us.split, !llvm.loop !3

.lr.ph.split:                                     ; preds = %.lr.ph
  br i1 %10, label %.lr.ph.split.split.us, label %.lr.ph.split.split

.lr.ph.split.split.us:                            ; preds = %.lr.ph.split, %42
  %indvars.iv71 = phi i64 [ %indvars.iv.next72, %42 ], [ 0, %.lr.ph.split ]
  %31 = getelementptr inbounds nuw ptr, ptr %8, i64 %indvars.iv71
  %32 = load ptr, ptr %31, align 8
  %.not.us44 = icmp eq ptr %32, null
  br i1 %.not.us44, label %42, label %33

33:                                               ; preds = %.lr.ph.split.split.us
  %34 = getelementptr inbounds nuw i8, ptr %32, i64 4
  %35 = tail call i64 @strlen(ptr noundef nonnull dereferenceable(1) %1) #23
  %36 = tail call i32 @strncmp(ptr noundef nonnull %34, ptr noundef nonnull %1, i64 noundef %35) #23
  %37 = icmp eq i32 %36, 0
  br i1 %37, label %38, label %42

38:                                               ; preds = %33
  %39 = getelementptr inbounds nuw i8, ptr %32, i64 1028
  %40 = load i32, ptr %39, align 4
  %41 = icmp eq i32 %40, %2
  br i1 %41, label %._crit_edge, label %42

42:                                               ; preds = %38, %33, %.lr.ph.split.split.us
  %indvars.iv.next72 = add nuw nsw i64 %indvars.iv71, 1
  %exitcond75.not = icmp eq i64 %indvars.iv.next72, %wide.trip.count84
  br i1 %exitcond75.not, label %._crit_edge, label %.lr.ph.split.split.us, !llvm.loop !3

.lr.ph.split.split:                               ; preds = %.lr.ph.split, %58
  %indvars.iv = phi i64 [ %indvars.iv.next, %58 ], [ 0, %.lr.ph.split ]
  %43 = getelementptr inbounds nuw ptr, ptr %8, i64 %indvars.iv
  %44 = load ptr, ptr %43, align 8
  %.not = icmp eq ptr %44, null
  br i1 %.not, label %58, label %45

45:                                               ; preds = %.lr.ph.split.split
  %46 = getelementptr inbounds nuw i8, ptr %44, i64 4
  %47 = tail call i64 @strlen(ptr noundef nonnull dereferenceable(1) %1) #23
  %48 = tail call i32 @strncmp(ptr noundef nonnull %46, ptr noundef nonnull %1, i64 noundef %47) #23
  %49 = icmp eq i32 %48, 0
  br i1 %49, label %50, label %58

50:                                               ; preds = %45
  %51 = getelementptr inbounds nuw i8, ptr %44, i64 1028
  %52 = load i32, ptr %51, align 4
  %53 = icmp eq i32 %52, %2
  br i1 %53, label %54, label %58

54:                                               ; preds = %50
  %55 = getelementptr inbounds nuw i8, ptr %44, i64 1032
  %56 = load i32, ptr %55, align 8
  %57 = icmp eq i32 %56, %3
  br i1 %57, label %._crit_edge, label %58

58:                                               ; preds = %54, %50, %45, %.lr.ph.split.split
  %indvars.iv.next = add nuw nsw i64 %indvars.iv, 1
  %exitcond.not = icmp eq i64 %indvars.iv.next, %wide.trip.count84
  br i1 %exitcond.not, label %._crit_edge, label %.lr.ph.split.split, !llvm.loop !3

._crit_edge:                                      ; preds = %54, %58, %38, %42, %26, %30, %13, %18, %5
  %storemerge = phi ptr [ null, %5 ], [ null, %18 ], [ %12, %13 ], [ null, %30 ], [ %20, %26 ], [ null, %42 ], [ %32, %38 ], [ null, %58 ], [ %44, %54 ]
  %.3 = phi i32 [ -1, %5 ], [ -1, %18 ], [ 0, %13 ], [ -1, %30 ], [ 0, %26 ], [ -1, %42 ], [ 0, %38 ], [ -1, %58 ], [ 0, %54 ]
  store ptr %storemerge, ptr %4, align 8
  ret i32 %.3
}